; Function Attrs: mustprogress nofree norecurse nosync nounwind willreturn memory(read, inaccessiblemem: none) uwtable
define noundef ptr @_ZNK5arrow7compute10Expression7literalEv(ptr nocapture noundef nonnull readonly align 8 dereferenceable(16) %this) local_unnamed_addr #4 align 2 {
entry:
  %0 = load ptr, ptr %this, align 8
  %cmp.i.not.i = icmp eq ptr %0, null
  br i1 %cmp.i.not.i, label %return, label %_ZSt6get_ifIN5arrow5DatumEJS1_NS0_7compute10Expression9ParameterENS3_4CallEEENSt11add_pointerIT_E4typeEPSt7variantIJDpT0_EE.exit

_ZSt6get_ifIN5arrow5DatumEJS1_NS0_7compute10Expression9ParameterENS3_4CallEEENSt11add_pointerIT_E4typeEPSt7variantIJDpT0_EE.exit: ; preds = %entry
  %_M_index.i.i.i = getelementptr inbounds i8, ptr %0, i64 144
  %1 = load i8, ptr %_M_index.i.i.i, align 8
  %cmp.i.i = icmp eq i8 %1, 0
  %spec.select.i.i = select i1 %cmp.i.i, ptr %0, ptr null
  br label %return

return:                                           ; preds = %entry, %_ZSt6get_ifIN5arrow5DatumEJS1_NS0_7compute10Expression9ParameterENS3_4CallEEENSt11add_pointerIT_E4typeEPSt7variantIJDpT0_EE.exit
  %retval.0 = phi ptr [ %spec.select.i.i, %_ZSt6get_ifIN5arrow5DatumEJS1_NS0_7compute10Expression9ParameterENS3_4CallEEENSt11add_pointerIT_E4typeEPSt7variantIJDpT0_EE.exit ], [ null, %entry ]
  ret ptr %retval.0
}